target datalayout = "e-m:e-p270:32:32-p271:32:32-p272:64:64-i64:64-i128:128-f80:128-n8:16:32:64-S128"
target triple = "x86_64-pc-linux-gnu"

%class.ShadowMapping = type <{ %class.DecorateShader, float, i32, i32, i32, i32, [4 x i8] }>
%class.DecorateShader = type { ptr, i8, i32, i32, i32 }
%class.QMessageLogger = type { %class.QMessageLogContext }
%class.QMessageLogContext = type { i32, i32, ptr, ptr, ptr }

@.str.10 = private unnamed_addr constant [8 x i8] c"default\00", align 1
@__glewBindFramebuffer = external global ptr, align 8
@__GLEW_EXT_framebuffer_object = external global i8, align 1
@.str.16 = private unnamed_addr constant [19 x i8] c"FBO not supported!\00", align 1
@__glewGenFramebuffers = external global ptr, align 8
@__glewDrawBuffersARB = external global ptr, align 8
@__glewCheckFramebufferStatus = external global ptr, align 8

; Function Attrs: mustprogress nounwind uwtable
define linkonce_odr void @_ZN18QMessageLogContextC2EPKciS1_S1_(ptr noundef nonnull align 8 dereferenceable(32) %0, ptr noundef %1, i32 noundef %2, ptr noundef %3, ptr noundef %4) unnamed_addr #0 comdat align 2 {
  %6 = alloca ptr, align 8
  %7 = alloca ptr, align 8
  %8 = alloca i32, align 4
  %9 = alloca ptr, align 8
  %10 = alloca ptr, align 8
  store ptr %0, ptr %6, align 8
  store ptr %1, ptr %7, align 8
  store i32 %2, ptr %8, align 4
  store ptr %3, ptr %9, align 8
  store ptr %4, ptr %10, align 8
  %11 = load ptr, ptr %6, align 8
  %12 = getelementptr inbounds %class.QMessageLogContext, ptr %11, i32 0, i32 0
  store i32 2, ptr %12, align 8
  %13 = getelementptr inbounds %class.QMessageLogContext, ptr %11, i32 0, i32 1
  %14 = load i32, ptr %8, align 4
  store i32 %14, ptr %13, align 4
  %15 = getelementptr inbounds %class.QMessageLogContext, ptr %11, i32 0, i32 2
  %16 = load ptr, ptr %7, align 8
  store ptr %16, ptr %15, align 8
  %17 = getelementptr inbounds %class.QMessageLogContext, ptr %11, i32 0, i32 3
  %18 = load ptr, ptr %9, align 8
  store ptr %18, ptr %17, align 8
  %19 = getelementptr inbounds %class.QMessageLogContext, ptr %11, i32 0, i32 4
  %20 = load ptr, ptr %10, align 8
  store ptr %20, ptr %19, align 8
  ret void
}

; Function Attrs: mustprogress nounwind uwtable
define linkonce_odr void @_ZN14QMessageLoggerC2EPKciS1_(ptr noundef nonnull align 8 dereferenceable(32) %0, ptr noundef %1, i32 noundef %2, ptr noundef %3) unnamed_addr #0 comdat align 2 {
  %5 = alloca ptr, align 8
  %6 = alloca ptr, align 8
  %7 = alloca i32, align 4
  %8 = alloca ptr, align 8
  store ptr %0, ptr %5, align 8
  store ptr %1, ptr %6, align 8
  store i32 %2, ptr %7, align 4
  store ptr %3, ptr %8, align 8
  %9 = load ptr, ptr %5, align 8
  %10 = getelementptr inbounds %class.QMessageLogger, ptr %9, i32 0, i32 0
  %11 = load ptr, ptr %6, align 8
  %12 = load i32, ptr %7, align 4
  %13 = load ptr, ptr %8, align 8
  call void @_ZN18QMessageLogContextC2EPKciS1_S1_(ptr noundef nonnull align 8 dereferenceable(32) %10, ptr noundef %11, i32 noundef %12, ptr noundef %13, ptr noundef @.str.10) #5
  ret void
}

; Function Attrs: mustprogress uwtable
define noundef zeroext i1 @_ZN13ShadowMapping5setupEv(ptr noundef nonnull align 8 dereferenceable(44) %0) unnamed_addr #1 align 2 {
  %2 = alloca i1, align 1
  %3 = alloca ptr, align 8
  %4 = alloca %class.QMessageLogger, align 8
  %5 = alloca [1 x i32], align 4
  %6 = alloca i32, align 4
  store ptr %0, ptr %3, align 8
  %7 = load ptr, ptr %3, align 8
  %8 = load i8, ptr @__GLEW_EXT_framebuffer_object, align 1
  %9 = icmp ne i8 %8, 0
  br i1 %9, label %11, label %10

10:                                               ; preds = %1
  call void @_ZN14QMessageLoggerC2EPKciS1_(ptr noundef nonnull align 8 dereferenceable(32) %4, ptr noundef null, i32 noundef 0, ptr noundef null)
  call void (ptr, ptr, ...) @_ZNK14QMessageLogger7warningEPKcz(ptr noundef nonnull align 8 dereferenceable(32) %4, ptr noundef @.str.16) #20
  store i1 false, ptr %2, align 1
  br label %35

11:                                               ; preds = %1
  %12 = getelementptr inbounds %class.DecorateShader, ptr %7, i32 0, i32 1
  %13 = load i8, ptr %12, align 8
  %14 = trunc i8 %13 to i1
  br i1 %14, label %15, label %16

15:                                               ; preds = %11
  store i1 true, ptr %2, align 1
  br label %35

16:                                               ; preds = %11
  %17 = load ptr, ptr @__glewGenFramebuffers, align 8
  %18 = getelementptr inbounds %class.DecorateShader, ptr %7, i32 0, i32 4
  call void %17(i32 noundef 1, ptr noundef %18)
  %19 = load ptr, ptr @__glewBindFramebuffer, align 8
  %20 = getelementptr inbounds %class.DecorateShader, ptr %7, i32 0, i32 4
  %21 = load i32, ptr %20, align 4
  call void %19(i32 noundef 36160, i32 noundef %21)
  %22 = getelementptr inbounds %class.ShadowMapping, ptr %7, i32 0, i32 2
  call void @_ZN14DecorateShader20genDepthMapTexture24ERjb(ptr noundef nonnull align 8 dereferenceable(24) %7, ptr noundef nonnull align 4 dereferenceable(4) %22, i1 noundef zeroext true)
  call void @llvm.memset.p0.i64(ptr align 4 %5, i8 0, i64 4, i1 false)
  %23 = load ptr, ptr @__glewDrawBuffersARB, align 8
  %24 = getelementptr inbounds [1 x i32], ptr %5, i64 0, i64 0
  call void %23(i32 noundef 1, ptr noundef %24)
  call void @glReadBuffer(i32 noundef 0)
  %25 = load ptr, ptr @__glewCheckFramebufferStatus, align 8
  %26 = call i32 %25(i32 noundef 36160)
  store i32 %26, ptr %6, align 4
  %27 = load i32, ptr %6, align 4
  %28 = icmp eq i32 %27, 36053
  %29 = getelementptr inbounds %class.DecorateShader, ptr %7, i32 0, i32 1
  %30 = zext i1 %28 to i8
  store i8 %30, ptr %29, align 8
  %31 = load ptr, ptr @__glewBindFramebuffer, align 8
  call void %31(i32 noundef 36160, i32 noundef 0)
  %32 = getelementptr inbounds %class.DecorateShader, ptr %7, i32 0, i32 1
  %33 = load i8, ptr %32, align 8
  %34 = trunc i8 %33 to i1
  store i1 %34, ptr %2, align 1
  br label %35

35:                                               ; preds = %16, %15, %10
  %36 = load i1, ptr %2, align 1
  ret i1 %36
}