; Function Attrs: mustprogress uwtable
define noundef zeroext i1 @_ZN13ShadowMapping5setupEv(ptr noundef nonnull align 8 dereferenceable(44) %0) unnamed_addr #1 align 2 {
  %2 = alloca %class.QMessageLogger, align 8
  %3 = alloca [1 x i32], align 4
  %4 = load i8, ptr @__GLEW_EXT_framebuffer_object, align 1
  %.not = icmp eq i8 %4, 0
  br i1 %.not, label %5, label %8

5:                                                ; preds = %1
  store i32 2, ptr %2, align 8
  %6 = getelementptr inbounds i8, ptr %2, i64 4
  %7 = getelementptr inbounds i8, ptr %2, i64 24
  call void @llvm.memset.p0.i64(ptr noundef nonnull align 4 dereferenceable(20) %6, i8 0, i64 20, i1 false)
  store ptr @.str.10, ptr %7, align 8
  call void (ptr, ptr, ...) @_ZNK14QMessageLogger7warningEPKcz(ptr noundef nonnull align 8 dereferenceable(32) %2, ptr noundef nonnull @.str.16) #25
  br label %27

8:                                                ; preds = %1
  %9 = getelementptr inbounds i8, ptr %0, i64 8
  %10 = load i8, ptr %9, align 8
  %11 = and i8 %10, 1
  %.not2 = icmp eq i8 %11, 0
  br i1 %.not2, label %12, label %27

12:                                               ; preds = %8
  %13 = load ptr, ptr @__glewGenFramebuffers, align 8
  %14 = getelementptr inbounds i8, ptr %0, i64 20
  tail call void %13(i32 noundef 1, ptr noundef nonnull %14)
  %15 = load ptr, ptr @__glewBindFramebuffer, align 8
  %16 = load i32, ptr %14, align 4
  tail call void %15(i32 noundef 36160, i32 noundef %16)
  %17 = getelementptr inbounds i8, ptr %0, i64 28
  tail call void @_ZN14DecorateShader20genDepthMapTexture24ERjb(ptr noundef nonnull align 8 dereferenceable(24) %0, ptr noundef nonnull align 4 dereferenceable(4) %17, i1 noundef zeroext true)
  store i32 0, ptr %3, align 4
  %18 = load ptr, ptr @__glewDrawBuffersARB, align 8
  call void %18(i32 noundef 1, ptr noundef nonnull %3)
  call void @glReadBuffer(i32 noundef 0)
  %19 = load ptr, ptr @__glewCheckFramebufferStatus, align 8
  %20 = call i32 %19(i32 noundef 36160)
  %21 = icmp eq i32 %20, 36053
  %22 = zext i1 %21 to i8
  store i8 %22, ptr %9, align 8
  %23 = load ptr, ptr @__glewBindFramebuffer, align 8
  call void %23(i32 noundef 36160, i32 noundef 0)
  %24 = load i8, ptr %9, align 8
  %25 = and i8 %24, 1
  %26 = icmp ne i8 %25, 0
  br label %27

27:                                               ; preds = %8, %12, %5
  %.0 = phi i1 [ %26, %12 ], [ false, %5 ], [ true, %8 ]
  ret i1 %.0
}